
memory.o:     file format elf64-x86-64


Disassembly of section .text:

0000000000000000 <create_memory>:
   0:	55                   	push   %rbp
   1:	48 89 e5             	mov    %rsp,%rbp
   4:	48 83 ec 20          	sub    $0x20,%rsp
   8:	89 7d ec             	mov    %edi,-0x14(%rbp)
   b:	bf 28 00 00 00       	mov    $0x28,%edi
  10:	e8 00 00 00 00       	callq  15 <create_memory+0x15>
  15:	48 89 45 f8          	mov    %rax,-0x8(%rbp)
  19:	8b 45 ec             	mov    -0x14(%rbp),%eax
  1c:	48 98                	cltq   
  1e:	48 c1 e0 03          	shl    $0x3,%rax
  22:	48 89 c7             	mov    %rax,%rdi
  25:	e8 00 00 00 00       	callq  2a <create_memory+0x2a>
  2a:	48 89 c2             	mov    %rax,%rdx
  2d:	48 8b 45 f8          	mov    -0x8(%rbp),%rax
  31:	48 89 10             	mov    %rdx,(%rax)
  34:	8b 45 ec             	mov    -0x14(%rbp),%eax
  37:	48 98                	cltq   
  39:	48 c1 e0 02          	shl    $0x2,%rax
  3d:	48 89 c7             	mov    %rax,%rdi
  40:	e8 00 00 00 00       	callq  45 <create_memory+0x45>
  45:	48 89 c2             	mov    %rax,%rdx
  48:	48 8b 45 f8          	mov    -0x8(%rbp),%rax
  4c:	48 89 50 08          	mov    %rdx,0x8(%rax)
  50:	48 8b 45 f8          	mov    -0x8(%rbp),%rax
  54:	c7 40 10 00 00 00 00 	movl   $0x0,0x10(%rax)
  5b:	48 8b 45 f8          	mov    -0x8(%rbp),%rax
  5f:	c7 40 14 00 00 00 00 	movl   $0x0,0x14(%rax)
  66:	48 8b 45 f8          	mov    -0x8(%rbp),%rax
  6a:	c7 40 18 00 00 00 00 	movl   $0x0,0x18(%rax)
  71:	48 8b 45 f8          	mov    -0x8(%rbp),%rax
  75:	c7 40 1c 00 00 00 00 	movl   $0x0,0x1c(%rax)
  7c:	8b 55 ec             	mov    -0x14(%rbp),%edx
  7f:	48 8b 45 f8          	mov    -0x8(%rbp),%rax
  83:	89 50 20             	mov    %edx,0x20(%rax)
  86:	8b 55 ec             	mov    -0x14(%rbp),%edx
  89:	48 8b 45 f8          	mov    -0x8(%rbp),%rax
  8d:	89 50 24             	mov    %edx,0x24(%rax)
  90:	48 8b 45 f8          	mov    -0x8(%rbp),%rax
  94:	c9                   	leaveq 
  95:	c3                   	retq   

0000000000000096 <add_segment>:
  96:	55                   	push   %rbp
  97:	48 89 e5             	mov    %rsp,%rbp
  9a:	48 83 ec 10          	sub    $0x10,%rsp
  9e:	48 89 7d f8          	mov    %rdi,-0x8(%rbp)
  a2:	48 89 75 f0          	mov    %rsi,-0x10(%rbp)
  a6:	48 8b 45 f0          	mov    -0x10(%rbp),%rax
  aa:	8b 50 18             	mov    0x18(%rax),%edx
  ad:	48 8b 45 f0          	mov    -0x10(%rbp),%rax
  b1:	8b 40 20             	mov    0x20(%rax),%eax
  b4:	39 c2                	cmp    %eax,%edx
  b6:	75 0c                	jne    c4 <add_segment+0x2e>
  b8:	48 8b 45 f0          	mov    -0x10(%rbp),%rax
  bc:	48 89 c7             	mov    %rax,%rdi
  bf:	e8 00 00 00 00       	callq  c4 <add_segment+0x2e>
  c4:	48 8b 45 f0          	mov    -0x10(%rbp),%rax
  c8:	48 8b 10             	mov    (%rax),%rdx
  cb:	48 8b 45 f0          	mov    -0x10(%rbp),%rax
  cf:	8b 40 10             	mov    0x10(%rax),%eax
  d2:	89 c0                	mov    %eax,%eax
  d4:	48 c1 e0 03          	shl    $0x3,%rax
  d8:	48 01 c2             	add    %rax,%rdx
  db:	48 8b 45 f8          	mov    -0x8(%rbp),%rax
  df:	48 89 02             	mov    %rax,(%rdx)
  e2:	48 8b 45 f0          	mov    -0x10(%rbp),%rax
  e6:	8b 40 10             	mov    0x10(%rax),%eax
  e9:	8d 50 01             	lea    0x1(%rax),%edx
  ec:	48 8b 45 f0          	mov    -0x10(%rbp),%rax
  f0:	89 50 10             	mov    %edx,0x10(%rax)
  f3:	48 8b 45 f0          	mov    -0x10(%rbp),%rax
  f7:	8b 40 18             	mov    0x18(%rax),%eax
  fa:	8d 50 01             	lea    0x1(%rax),%edx
  fd:	48 8b 45 f0          	mov    -0x10(%rbp),%rax
 101:	89 50 18             	mov    %edx,0x18(%rax)
 104:	90                   	nop
 105:	c9                   	leaveq 
 106:	c3                   	retq   

0000000000000107 <get_segment>:
 107:	55                   	push   %rbp
 108:	48 89 e5             	mov    %rsp,%rbp
 10b:	89 7d ec             	mov    %edi,-0x14(%rbp)
 10e:	48 89 75 e0          	mov    %rsi,-0x20(%rbp)
 112:	48 8b 45 e0          	mov    -0x20(%rbp),%rax
 116:	48 8b 00             	mov    (%rax),%rax
 119:	8b 55 ec             	mov    -0x14(%rbp),%edx
 11c:	48 c1 e2 03          	shl    $0x3,%rdx
 120:	48 01 d0             	add    %rdx,%rax
 123:	48 8b 00             	mov    (%rax),%rax
 126:	48 89 45 f8          	mov    %rax,-0x8(%rbp)
 12a:	48 8b 45 f8          	mov    -0x8(%rbp),%rax
 12e:	5d                   	pop    %rbp
 12f:	c3                   	retq   

0000000000000130 <rem_segment>:
 130:	55                   	push   %rbp
 131:	48 89 e5             	mov    %rsp,%rbp
 134:	48 83 ec 10          	sub    $0x10,%rsp
 138:	89 7d fc             	mov    %edi,-0x4(%rbp)
 13b:	48 89 75 f0          	mov    %rsi,-0x10(%rbp)
 13f:	48 8b 55 f0          	mov    -0x10(%rbp),%rdx
 143:	8b 45 fc             	mov    -0x4(%rbp),%eax
 146:	48 89 d6             	mov    %rdx,%rsi
 149:	89 c7                	mov    %eax,%edi
 14b:	e8 00 00 00 00       	callq  150 <rem_segment+0x20>
 150:	48 89 c7             	mov    %rax,%rdi
 153:	e8 00 00 00 00       	callq  158 <rem_segment+0x28>
 158:	48 8b 45 f0          	mov    -0x10(%rbp),%rax
 15c:	8b 40 18             	mov    0x18(%rax),%eax
 15f:	8d 50 ff             	lea    -0x1(%rax),%edx
 162:	48 8b 45 f0          	mov    -0x10(%rbp),%rax
 166:	89 50 18             	mov    %edx,0x18(%rax)
 169:	90                   	nop
 16a:	c9                   	leaveq 
 16b:	c3                   	retq   

000000000000016c <free_memory>:
 16c:	55                   	push   %rbp
 16d:	48 89 e5             	mov    %rsp,%rbp
 170:	48 83 ec 20          	sub    $0x20,%rsp
 174:	48 89 7d e8          	mov    %rdi,-0x18(%rbp)
 178:	c7 45 fc 00 00 00 00 	movl   $0x0,-0x4(%rbp)
 17f:	eb 2f                	jmp    1b0 <free_memory+0x44>
 181:	48 8b 45 e8          	mov    -0x18(%rbp),%rax
 185:	48 8b 00             	mov    (%rax),%rax
 188:	8b 55 fc             	mov    -0x4(%rbp),%edx
 18b:	48 c1 e2 03          	shl    $0x3,%rdx
 18f:	48 01 d0             	add    %rdx,%rax
 192:	48 8b 00             	mov    (%rax),%rax
 195:	48 89 45 f0          	mov    %rax,-0x10(%rbp)
 199:	48 83 7d f0 00       	cmpq   $0x0,-0x10(%rbp)
 19e:	74 0c                	je     1ac <free_memory+0x40>
 1a0:	48 8b 45 f0          	mov    -0x10(%rbp),%rax
 1a4:	48 89 c7             	mov    %rax,%rdi
 1a7:	e8 00 00 00 00       	callq  1ac <free_memory+0x40>
 1ac:	83 45 fc 01          	addl   $0x1,-0x4(%rbp)
 1b0:	48 8b 45 e8          	mov    -0x18(%rbp),%rax
 1b4:	8b 40 10             	mov    0x10(%rax),%eax
 1b7:	3b 45 fc             	cmp    -0x4(%rbp),%eax
 1ba:	77 c5                	ja     181 <free_memory+0x15>
 1bc:	48 8b 45 e8          	mov    -0x18(%rbp),%rax
 1c0:	48 8b 00             	mov    (%rax),%rax
 1c3:	48 89 c7             	mov    %rax,%rdi
 1c6:	e8 00 00 00 00       	callq  1cb <free_memory+0x5f>
 1cb:	48 8b 45 e8          	mov    -0x18(%rbp),%rax
 1cf:	48 8b 40 08          	mov    0x8(%rax),%rax
 1d3:	48 89 c7             	mov    %rax,%rdi
 1d6:	e8 00 00 00 00       	callq  1db <free_memory+0x6f>
 1db:	48 8b 45 e8          	mov    -0x18(%rbp),%rax
 1df:	48 89 c7             	mov    %rax,%rdi
 1e2:	e8 00 00 00 00       	callq  1e7 <free_memory+0x7b>
 1e7:	90                   	nop
 1e8:	c9                   	leaveq 
 1e9:	c3                   	retq   

00000000000001ea <get_mem_size>:
 1ea:	55                   	push   %rbp
 1eb:	48 89 e5             	mov    %rsp,%rbp
 1ee:	48 89 7d f8          	mov    %rdi,-0x8(%rbp)
 1f2:	48 8b 45 f8          	mov    -0x8(%rbp),%rax
 1f6:	8b 40 18             	mov    0x18(%rax),%eax
 1f9:	5d                   	pop    %rbp
 1fa:	c3                   	retq   

00000000000001fb <add_id>:
 1fb:	55                   	push   %rbp
 1fc:	48 89 e5             	mov    %rsp,%rbp
 1ff:	48 83 ec 10          	sub    $0x10,%rsp
 203:	48 89 7d f8          	mov    %rdi,-0x8(%rbp)
 207:	89 75 f4             	mov    %esi,-0xc(%rbp)
 20a:	48 8b 45 f8          	mov    -0x8(%rbp),%rax
 20e:	48 8b 50 08          	mov    0x8(%rax),%rdx
 212:	48 8b 45 f8          	mov    -0x8(%rbp),%rax
 216:	8b 40 14             	mov    0x14(%rax),%eax
 219:	89 c0                	mov    %eax,%eax
 21b:	48 c1 e0 02          	shl    $0x2,%rax
 21f:	48 01 c2             	add    %rax,%rdx
 222:	8b 45 f4             	mov    -0xc(%rbp),%eax
 225:	89 02                	mov    %eax,(%rdx)
 227:	48 8b 45 f8          	mov    -0x8(%rbp),%rax
 22b:	8b 40 14             	mov    0x14(%rax),%eax
 22e:	8d 50 01             	lea    0x1(%rax),%edx
 231:	48 8b 45 f8          	mov    -0x8(%rbp),%rax
 235:	89 50 14             	mov    %edx,0x14(%rax)
 238:	48 8b 45 f8          	mov    -0x8(%rbp),%rax
 23c:	8b 40 1c             	mov    0x1c(%rax),%eax
 23f:	8d 50 01             	lea    0x1(%rax),%edx
 242:	48 8b 45 f8          	mov    -0x8(%rbp),%rax
 246:	89 50 1c             	mov    %edx,0x1c(%rax)
 249:	48 8b 45 f8          	mov    -0x8(%rbp),%rax
 24d:	8b 50 1c             	mov    0x1c(%rax),%edx
 250:	48 8b 45 f8          	mov    -0x8(%rbp),%rax
 254:	8b 40 24             	mov    0x24(%rax),%eax
 257:	39 c2                	cmp    %eax,%edx
 259:	75 0c                	jne    267 <add_id+0x6c>
 25b:	48 8b 45 f8          	mov    -0x8(%rbp),%rax
 25f:	48 89 c7             	mov    %rax,%rdi
 262:	e8 00 00 00 00       	callq  267 <add_id+0x6c>
 267:	90                   	nop
 268:	c9                   	leaveq 
 269:	c3                   	retq   

000000000000026a <remove_id>:
 26a:	55                   	push   %rbp
 26b:	48 89 e5             	mov    %rsp,%rbp
 26e:	48 89 7d f8          	mov    %rdi,-0x8(%rbp)
 272:	48 8b 45 f8          	mov    -0x8(%rbp),%rax
 276:	8b 40 1c             	mov    0x1c(%rax),%eax
 279:	8d 50 ff             	lea    -0x1(%rax),%edx
 27c:	48 8b 45 f8          	mov    -0x8(%rbp),%rax
 280:	89 50 1c             	mov    %edx,0x1c(%rax)
 283:	48 8b 45 f8          	mov    -0x8(%rbp),%rax
 287:	8b 40 14             	mov    0x14(%rax),%eax
 28a:	8d 50 ff             	lea    -0x1(%rax),%edx
 28d:	48 8b 45 f8          	mov    -0x8(%rbp),%rax
 291:	89 50 14             	mov    %edx,0x14(%rax)
 294:	48 8b 45 f8          	mov    -0x8(%rbp),%rax
 298:	48 8b 50 08          	mov    0x8(%rax),%rdx
 29c:	48 8b 45 f8          	mov    -0x8(%rbp),%rax
 2a0:	8b 40 14             	mov    0x14(%rax),%eax
 2a3:	89 c0                	mov    %eax,%eax
 2a5:	48 c1 e0 02          	shl    $0x2,%rax
 2a9:	48 01 d0             	add    %rdx,%rax
 2ac:	8b 00                	mov    (%rax),%eax
 2ae:	5d                   	pop    %rbp
 2af:	c3                   	retq   

00000000000002b0 <get_num_unused>:
 2b0:	55                   	push   %rbp
 2b1:	48 89 e5             	mov    %rsp,%rbp
 2b4:	48 89 7d f8          	mov    %rdi,-0x8(%rbp)
 2b8:	48 8b 45 f8          	mov    -0x8(%rbp),%rax
 2bc:	8b 40 1c             	mov    0x1c(%rax),%eax
 2bf:	5d                   	pop    %rbp
 2c0:	c3                   	retq   

00000000000002c1 <put_segment>:
 2c1:	55                   	push   %rbp
 2c2:	48 89 e5             	mov    %rsp,%rbp
 2c5:	48 89 7d f8          	mov    %rdi,-0x8(%rbp)
 2c9:	48 89 75 f0          	mov    %rsi,-0x10(%rbp)
 2cd:	89 55 ec             	mov    %edx,-0x14(%rbp)
 2d0:	48 8b 45 f0          	mov    -0x10(%rbp),%rax
 2d4:	48 8b 00             	mov    (%rax),%rax
 2d7:	8b 55 ec             	mov    -0x14(%rbp),%edx
 2da:	48 c1 e2 03          	shl    $0x3,%rdx
 2de:	48 01 c2             	add    %rax,%rdx
 2e1:	48 8b 45 f8          	mov    -0x8(%rbp),%rax
 2e5:	48 89 02             	mov    %rax,(%rdx)
 2e8:	48 83 7d f8 00       	cmpq   $0x0,-0x8(%rbp)
 2ed:	74 11                	je     300 <put_segment+0x3f>
 2ef:	48 8b 45 f0          	mov    -0x10(%rbp),%rax
 2f3:	8b 40 18             	mov    0x18(%rax),%eax
 2f6:	8d 50 01             	lea    0x1(%rax),%edx
 2f9:	48 8b 45 f0          	mov    -0x10(%rbp),%rax
 2fd:	89 50 18             	mov    %edx,0x18(%rax)
 300:	90                   	nop
 301:	5d                   	pop    %rbp
 302:	c3                   	retq   

0000000000000303 <get_curr_id>:
 303:	55                   	push   %rbp
 304:	48 89 e5             	mov    %rsp,%rbp
 307:	48 89 7d f8          	mov    %rdi,-0x8(%rbp)
 30b:	48 8b 45 f8          	mov    -0x8(%rbp),%rax
 30f:	8b 40 10             	mov    0x10(%rax),%eax
 312:	5d                   	pop    %rbp
 313:	c3                   	retq   

0000000000000314 <expand_memory>:
 314:	55                   	push   %rbp
 315:	48 89 e5             	mov    %rsp,%rbp
 318:	48 83 ec 20          	sub    $0x20,%rsp
 31c:	48 89 7d e8          	mov    %rdi,-0x18(%rbp)
 320:	48 8b 45 e8          	mov    -0x18(%rbp),%rax
 324:	8b 40 18             	mov    0x18(%rax),%eax
 327:	89 45 f8             	mov    %eax,-0x8(%rbp)
 32a:	8b 45 f8             	mov    -0x8(%rbp),%eax
 32d:	48 98                	cltq   
 32f:	48 c1 e0 04          	shl    $0x4,%rax
 333:	48 89 c7             	mov    %rax,%rdi
 336:	e8 00 00 00 00       	callq  33b <expand_memory+0x27>
 33b:	48 89 45 f0          	mov    %rax,-0x10(%rbp)
 33f:	c7 45 fc 00 00 00 00 	movl   $0x0,-0x4(%rbp)
 346:	eb 32                	jmp    37a <expand_memory+0x66>
 348:	8b 45 fc             	mov    -0x4(%rbp),%eax
 34b:	48 98                	cltq   
 34d:	48 8d 14 c5 00 00 00 	lea    0x0(,%rax,8),%rdx
 354:	00 
 355:	48 8b 45 f0          	mov    -0x10(%rbp),%rax
 359:	48 01 c2             	add    %rax,%rdx
 35c:	48 8b 45 e8          	mov    -0x18(%rbp),%rax
 360:	48 8b 00             	mov    (%rax),%rax
 363:	8b 4d fc             	mov    -0x4(%rbp),%ecx
 366:	48 63 c9             	movslq %ecx,%rcx
 369:	48 c1 e1 03          	shl    $0x3,%rcx
 36d:	48 01 c8             	add    %rcx,%rax
 370:	48 8b 00             	mov    (%rax),%rax
 373:	48 89 02             	mov    %rax,(%rdx)
 376:	83 45 fc 01          	addl   $0x1,-0x4(%rbp)
 37a:	8b 45 fc             	mov    -0x4(%rbp),%eax
 37d:	3b 45 f8             	cmp    -0x8(%rbp),%eax
 380:	7c c6                	jl     348 <expand_memory+0x34>
 382:	48 8b 45 e8          	mov    -0x18(%rbp),%rax
 386:	48 8b 00             	mov    (%rax),%rax
 389:	48 89 c7             	mov    %rax,%rdi
 38c:	e8 00 00 00 00       	callq  391 <expand_memory+0x7d>
 391:	48 8b 45 e8          	mov    -0x18(%rbp),%rax
 395:	48 8b 55 f0          	mov    -0x10(%rbp),%rdx
 399:	48 89 10             	mov    %rdx,(%rax)
 39c:	8b 45 f8             	mov    -0x8(%rbp),%eax
 39f:	01 c0                	add    %eax,%eax
 3a1:	89 c2                	mov    %eax,%edx
 3a3:	48 8b 45 e8          	mov    -0x18(%rbp),%rax
 3a7:	89 50 20             	mov    %edx,0x20(%rax)
 3aa:	90                   	nop
 3ab:	c9                   	leaveq 
 3ac:	c3                   	retq   

00000000000003ad <expand_ids>:
 3ad:	55                   	push   %rbp
 3ae:	48 89 e5             	mov    %rsp,%rbp
 3b1:	48 83 ec 20          	sub    $0x20,%rsp
 3b5:	48 89 7d e8          	mov    %rdi,-0x18(%rbp)
 3b9:	48 8b 45 e8          	mov    -0x18(%rbp),%rax
 3bd:	8b 40 1c             	mov    0x1c(%rax),%eax
 3c0:	89 45 f8             	mov    %eax,-0x8(%rbp)
 3c3:	8b 45 f8             	mov    -0x8(%rbp),%eax
 3c6:	48 98                	cltq   
 3c8:	48 c1 e0 03          	shl    $0x3,%rax
 3cc:	48 89 c7             	mov    %rax,%rdi
 3cf:	e8 00 00 00 00       	callq  3d4 <expand_ids+0x27>
 3d4:	48 89 45 f0          	mov    %rax,-0x10(%rbp)
 3d8:	c7 45 fc 00 00 00 00 	movl   $0x0,-0x4(%rbp)
 3df:	eb 31                	jmp    412 <expand_ids+0x65>
 3e1:	8b 45 fc             	mov    -0x4(%rbp),%eax
 3e4:	48 98                	cltq   
 3e6:	48 8d 14 85 00 00 00 	lea    0x0(,%rax,4),%rdx
 3ed:	00 
 3ee:	48 8b 45 f0          	mov    -0x10(%rbp),%rax
 3f2:	48 01 c2             	add    %rax,%rdx
 3f5:	48 8b 45 e8          	mov    -0x18(%rbp),%rax
 3f9:	48 8b 40 08          	mov    0x8(%rax),%rax
 3fd:	8b 4d fc             	mov    -0x4(%rbp),%ecx
 400:	48 63 c9             	movslq %ecx,%rcx
 403:	48 c1 e1 02          	shl    $0x2,%rcx
 407:	48 01 c8             	add    %rcx,%rax
 40a:	8b 00                	mov    (%rax),%eax
 40c:	89 02                	mov    %eax,(%rdx)
 40e:	83 45 fc 01          	addl   $0x1,-0x4(%rbp)
 412:	8b 45 fc             	mov    -0x4(%rbp),%eax
 415:	3b 45 f8             	cmp    -0x8(%rbp),%eax
 418:	7c c7                	jl     3e1 <expand_ids+0x34>
 41a:	48 8b 45 e8          	mov    -0x18(%rbp),%rax
 41e:	48 8b 40 08          	mov    0x8(%rax),%rax
 422:	48 89 c7             	mov    %rax,%rdi
 425:	e8 00 00 00 00       	callq  42a <expand_ids+0x7d>
 42a:	48 8b 45 e8          	mov    -0x18(%rbp),%rax
 42e:	48 8b 55 f0          	mov    -0x10(%rbp),%rdx
 432:	48 89 50 08          	mov    %rdx,0x8(%rax)
 436:	8b 45 f8             	mov    -0x8(%rbp),%eax
 439:	01 c0                	add    %eax,%eax
 43b:	89 c2                	mov    %eax,%edx
 43d:	48 8b 45 e8          	mov    -0x18(%rbp),%rax
 441:	89 50 24             	mov    %edx,0x24(%rax)
 444:	90                   	nop
 445:	c9                   	leaveq 
 446:	c3                   	retq   
